; Function Attrs: nounwind uwtable
define dso_local void @_ZTv0_n24_N10cmDebugger26cmDebuggerPipeClient_POSIXD1Ev(ptr noundef %0) unnamed_addr #4 align 2 personality ptr @__gxx_personality_v0 {
  %2 = load ptr, ptr %0, align 8
  %3 = getelementptr inbounds i8, ptr %2, i64 -24
  %4 = load i64, ptr %3, align 8
  %5 = getelementptr inbounds i8, ptr %0, i64 %4
  store ptr getelementptr inbounds ({ [12 x ptr], [11 x ptr] }, ptr @_ZTVN10cmDebugger26cmDebuggerPipeClient_POSIXE, i64 0, i32 0, i64 6), ptr %5, align 8
  %6 = getelementptr inbounds i8, ptr %5, i64 8
  store ptr getelementptr inbounds ({ [12 x ptr], [11 x ptr] }, ptr @_ZTVN10cmDebugger26cmDebuggerPipeClient_POSIXE, i64 0, i32 1, i64 6), ptr %6, align 8
  %7 = getelementptr inbounds i8, ptr %5, i64 64
  %8 = load i32, ptr %7, align 8
  %9 = icmp sgt i32 %8, -1
  br i1 %9, label %10, label %_ZN10cmDebugger26cmDebuggerPipeClient_POSIX5closeEv.exit.i

10:                                               ; preds = %1
  %11 = invoke i32 @close(i32 noundef %8)
          to label %.noexc1.i unwind label %29

.noexc1.i:                                        ; preds = %10
  store i32 -1, ptr %7, align 8
  br label %_ZN10cmDebugger26cmDebuggerPipeClient_POSIX5closeEv.exit.i

_ZN10cmDebugger26cmDebuggerPipeClient_POSIX5closeEv.exit.i: ; preds = %.noexc1.i, %1
  %12 = getelementptr inbounds i8, ptr %5, i64 32
  tail call void @_ZNSt7__cxx1112basic_stringIcSt11char_traitsIcESaIcEED1Ev(ptr noundef nonnull align 8 dereferenceable(32) %12) #25
  %13 = getelementptr inbounds i8, ptr %5, i64 24
  %14 = load ptr, ptr %13, align 8
  %.not.i.i.i.i.i.i = icmp eq ptr %14, null
  br i1 %.not.i.i.i.i.i.i, label %_ZN10cmDebugger26cmDebuggerPipeClient_POSIXD1Ev.exit, label %15

15:                                               ; preds = %_ZN10cmDebugger26cmDebuggerPipeClient_POSIX5closeEv.exit.i
  %16 = getelementptr inbounds i8, ptr %14, i64 12
  %17 = load i8, ptr @__libc_single_threaded, align 1
  %.not.i.i.i.i.i.i.i = icmp eq i8 %17, 0
  br i1 %.not.i.i.i.i.i.i.i, label %21, label %18

18:                                               ; preds = %15
  %19 = load i32, ptr %16, align 4
  %20 = add nsw i32 %19, -1
  store i32 %20, ptr %16, align 4
  br label %23

21:                                               ; preds = %15
  %22 = atomicrmw volatile add ptr %16, i32 -1 acq_rel, align 4
  br label %23

23:                                               ; preds = %21, %18
  %.0.i.i.i.i.i.i.i = phi i32 [ %19, %18 ], [ %22, %21 ]
  %24 = icmp eq i32 %.0.i.i.i.i.i.i.i, 1
  br i1 %24, label %25, label %_ZN10cmDebugger26cmDebuggerPipeClient_POSIXD1Ev.exit

25:                                               ; preds = %23
  %26 = load ptr, ptr %14, align 8
  %27 = getelementptr inbounds i8, ptr %26, i64 24
  %28 = load ptr, ptr %27, align 8
  tail call void %28(ptr noundef nonnull align 8 dereferenceable(16) %14) #25
  br label %_ZN10cmDebugger26cmDebuggerPipeClient_POSIXD1Ev.exit

29:                                               ; preds = %10
  %30 = landingpad { ptr, i32 }
          catch ptr null
  %31 = extractvalue { ptr, i32 } %30, 0
  tail call void @__clang_call_terminate(ptr %31) #26
  unreachable

_ZN10cmDebugger26cmDebuggerPipeClient_POSIXD1Ev.exit: ; preds = %_ZN10cmDebugger26cmDebuggerPipeClient_POSIX5closeEv.exit.i, %23, %25
  ret void
}